target datalayout = "e-m:e-p270:32:32-p271:32:32-p272:64:64-i64:64-i128:128-f80:128-n8:16:32:64-S128"
target triple = "x86_64-pc-linux-gnu"

%struct._php_stream = type { ptr, ptr, %struct._php_stream_filter_chain, %struct._php_stream_filter_chain, ptr, ptr, %struct._zval_struct, i16, [16 x i8], i32, ptr, ptr, ptr, ptr, i64, ptr, i64, i64, i64, i64, ptr }
%struct._php_stream_filter_chain = type { ptr, ptr, ptr }
%struct._zval_struct = type { %union._zend_value, %union.anon, %union.anon.2 }
%union._zend_value = type { i64 }
%union.anon = type { i32 }
%union.anon.2 = type { i32 }
%struct._php_netstream_data_t = type { i32, i8, %struct.timeval, i8, i64 }
%struct.timeval = type { i64, i64 }

; Function Attrs: nounwind uwtable
define internal i32 @php_sockop_cast(ptr noundef %0, i32 noundef %1, ptr noundef %2) #0 {
  %4 = alloca i32, align 4
  %5 = alloca ptr, align 8
  %6 = alloca i32, align 4
  %7 = alloca ptr, align 8
  %8 = alloca ptr, align 8
  %9 = alloca i32, align 4
  store ptr %0, ptr %5, align 8, !tbaa !4
  store i32 %1, ptr %6, align 4, !tbaa !33
  store ptr %2, ptr %7, align 8, !tbaa !52
  call void @llvm.lifetime.start.p0(i64 8, ptr %8) #12
  %10 = load ptr, ptr %5, align 8, !tbaa !4
  %11 = getelementptr inbounds nuw %struct._php_stream, ptr %10, i32 0, i32 1
  %12 = load ptr, ptr %11, align 8, !tbaa !13
  store ptr %12, ptr %8, align 8, !tbaa !24
  %13 = load ptr, ptr %8, align 8, !tbaa !24
  %14 = icmp ne ptr %13, null
  br i1 %14, label %16, label %15

15:                                               ; preds = %3
  store i32 -1, ptr %4, align 4
  store i32 1, ptr %9, align 4
  br label %46

16:                                               ; preds = %3
  %17 = load i32, ptr %6, align 4, !tbaa !33
  switch i32 %17, label %45 [
    i32 0, label %18
    i32 3, label %36
    i32 1, label %36
    i32 2, label %36
  ]

18:                                               ; preds = %16
  %19 = load ptr, ptr %7, align 8, !tbaa !52
  %20 = icmp ne ptr %19, null
  br i1 %20, label %21, label %35

21:                                               ; preds = %18
  %22 = load ptr, ptr %8, align 8, !tbaa !24
  %23 = getelementptr inbounds nuw %struct._php_netstream_data_t, ptr %22, i32 0, i32 0
  %24 = load i32, ptr %23, align 8, !tbaa !26
  %25 = load ptr, ptr %5, align 8, !tbaa !4
  %26 = getelementptr inbounds nuw %struct._php_stream, ptr %25, i32 0, i32 8
  %27 = getelementptr inbounds [16 x i8], ptr %26, i64 0, i64 0
  %28 = call noalias ptr @fdopen(i32 noundef %24, ptr noundef %27) #12
  %29 = load ptr, ptr %7, align 8, !tbaa !52
  store ptr %28, ptr %29, align 8, !tbaa !53
  %30 = load ptr, ptr %7, align 8, !tbaa !52
  %31 = load ptr, ptr %30, align 8, !tbaa !52
  %32 = icmp ne ptr %31, null
  br i1 %32, label %33, label %34

33:                                               ; preds = %21
  store i32 0, ptr %4, align 4
  store i32 1, ptr %9, align 4
  br label %46

34:                                               ; preds = %21
  store i32 -1, ptr %4, align 4
  store i32 1, ptr %9, align 4
  br label %46

35:                                               ; preds = %18
  store i32 0, ptr %4, align 4
  store i32 1, ptr %9, align 4
  br label %46

36:                                               ; preds = %16, %16, %16
  %37 = load ptr, ptr %7, align 8, !tbaa !52
  %38 = icmp ne ptr %37, null
  br i1 %38, label %39, label %44

39:                                               ; preds = %36
  %40 = load ptr, ptr %8, align 8, !tbaa !24
  %41 = getelementptr inbounds nuw %struct._php_netstream_data_t, ptr %40, i32 0, i32 0
  %42 = load i32, ptr %41, align 8, !tbaa !26
  %43 = load ptr, ptr %7, align 8, !tbaa !52
  store i32 %42, ptr %43, align 4, !tbaa !33
  br label %44

44:                                               ; preds = %39, %36
  store i32 0, ptr %4, align 4
  store i32 1, ptr %9, align 4
  br label %46

45:                                               ; preds = %16
  store i32 -1, ptr %4, align 4
  store i32 1, ptr %9, align 4
  br label %46

46:                                               ; preds = %45, %44, %35, %34, %33, %15
  call void @llvm.lifetime.end.p0(i64 8, ptr %8) #12
  %47 = load i32, ptr %4, align 4
  ret i32 %47
}