; Function Attrs: nofree nounwind uwtable
define internal range(i32 -1, 1) i32 @php_sockop_cast(ptr noundef readonly captures(none) %0, i32 noundef %1, ptr noundef writeonly captures(address_is_null) %2) #2 {
  %4 = getelementptr inbounds nuw i8, ptr %0, i64 8
  %5 = load ptr, ptr %4, align 8, !tbaa !4
  %.not = icmp eq ptr %5, null
  br i1 %.not, label %15, label %6

6:                                                ; preds = %3
  switch i32 %1, label %15 [
    i32 0, label %7
    i32 3, label %12
    i32 1, label %12
    i32 2, label %12
  ]

7:                                                ; preds = %6
  %.not14 = icmp eq ptr %2, null
  br i1 %.not14, label %15, label %8

8:                                                ; preds = %7
  %9 = load i32, ptr %5, align 8, !tbaa !21
  %10 = getelementptr inbounds nuw i8, ptr %0, i64 98
  %11 = tail call noalias ptr @fdopen(i32 noundef %9, ptr noundef nonnull %10) #15
  store ptr %11, ptr %2, align 8, !tbaa !47
  %.not15 = icmp eq ptr %11, null
  %. = sext i1 %.not15 to i32
  br label %15

12:                                               ; preds = %6, %6, %6
  %.not13 = icmp eq ptr %2, null
  br i1 %.not13, label %15, label %13

13:                                               ; preds = %12
  %14 = load i32, ptr %5, align 8, !tbaa !21
  store i32 %14, ptr %2, align 4, !tbaa !26
  br label %15

15:                                               ; preds = %6, %12, %13, %7, %8, %3
  %.0 = phi i32 [ -1, %3 ], [ %., %8 ], [ 0, %7 ], [ 0, %13 ], [ 0, %12 ], [ -1, %6 ]
  ret i32 %.0
}